; Function Attrs: mustprogress nounwind uwtable
define internal fastcc noundef zeroext i1 @_ZNK32pxrInternal_v0_24__pxrReserved__7pxr_tsl17detail_robin_hash10robin_hashINS_12_GLOBAL__N_14TaskENS0_9robin_setIS4_NS_6TfHashESt8equal_toIS4_ESaIS4_ELb0ENS0_2rh26power_of_two_growth_policyILm2EEEE9KeySelectEvS6_S8_S9_Lb0ESC_E12compare_keysIS4_S4_EEbRKT_RKT0_(ptr noundef nonnull align 8 dereferenceable(64) %0, ptr noundef nonnull align 8 dereferenceable(64) %1) unnamed_addr #8 align 2 personality ptr @__gxx_personality_v0 {
  %3 = load i32, ptr %0, align 8
  %4 = load i32, ptr %1, align 8
  %5 = icmp eq i32 %3, %4
  br i1 %5, label %6, label %_ZNKSt8equal_toIN32pxrInternal_v0_24__pxrReserved__12_GLOBAL__N_14TaskEEclERKS2_S5_.exit

6:                                                ; preds = %2
  %7 = getelementptr inbounds nuw i8, ptr %0, i64 8
  %8 = getelementptr inbounds nuw i8, ptr %1, i64 8
  %9 = getelementptr inbounds i8, ptr %0, i64 16
  %10 = load i64, ptr %9, align 8
  %11 = getelementptr inbounds i8, ptr %1, i64 16
  %12 = load i64, ptr %11, align 8
  %13 = icmp eq i64 %10, %12
  %14 = load ptr, ptr %7, align 8
  %15 = load ptr, ptr %8, align 8
  %16 = icmp eq ptr %14, %15
  %17 = select i1 %13, i1 %16, i1 false
  br i1 %17, label %18, label %_ZNKSt8equal_toIN32pxrInternal_v0_24__pxrReserved__12_GLOBAL__N_14TaskEEclERKS2_S5_.exit

18:                                               ; preds = %6
  %19 = getelementptr inbounds nuw i8, ptr %0, i64 56
  %20 = getelementptr inbounds nuw i8, ptr %1, i64 56
  %.0.copyload.i.i.i.i = load i64, ptr %19, align 8
  %.0.copyload.i2.i.i.i = load i64, ptr %20, align 8
  %21 = icmp eq i64 %.0.copyload.i.i.i.i, %.0.copyload.i2.i.i.i
  br i1 %21, label %22, label %_ZNKSt8equal_toIN32pxrInternal_v0_24__pxrReserved__12_GLOBAL__N_14TaskEEclERKS2_S5_.exit

22:                                               ; preds = %18
  %23 = getelementptr inbounds nuw i8, ptr %0, i64 24
  %24 = getelementptr inbounds nuw i8, ptr %1, i64 24
  %25 = tail call noundef i64 @_ZNKSt7__cxx1112basic_stringIcSt11char_traitsIcESaIcEE4sizeEv(ptr noundef nonnull align 8 dereferenceable(32) %23) #22
  %26 = tail call noundef i64 @_ZNKSt7__cxx1112basic_stringIcSt11char_traitsIcESaIcEE4sizeEv(ptr noundef nonnull align 8 dereferenceable(32) %24) #22
  %27 = icmp eq i64 %25, %26
  br i1 %27, label %28, label %_ZNKSt8equal_toIN32pxrInternal_v0_24__pxrReserved__12_GLOBAL__N_14TaskEEclERKS2_S5_.exit

28:                                               ; preds = %22
  %29 = tail call noundef ptr @_ZNKSt7__cxx1112basic_stringIcSt11char_traitsIcESaIcEE4dataEv(ptr noundef nonnull align 8 dereferenceable(32) %23) #22
  %30 = tail call noundef ptr @_ZNKSt7__cxx1112basic_stringIcSt11char_traitsIcESaIcEE4dataEv(ptr noundef nonnull align 8 dereferenceable(32) %24) #22
  %31 = tail call noundef i64 @_ZNKSt7__cxx1112basic_stringIcSt11char_traitsIcESaIcEE4sizeEv(ptr noundef nonnull align 8 dereferenceable(32) %23) #22
  %32 = icmp eq i64 %31, 0
  br i1 %32, label %_ZSteqIcEN9__gnu_cxx11__enable_ifIXsr9__is_charIT_EE7__valueEbE6__typeERKNSt7__cxx1112basic_stringIS2_St11char_traitsIS2_ESaIS2_EEESC_.exit.thread.i.i, label %_ZSteqIcEN9__gnu_cxx11__enable_ifIXsr9__is_charIT_EE7__valueEbE6__typeERKNSt7__cxx1112basic_stringIS2_St11char_traitsIS2_ESaIS2_EEESC_.exit.i.i

_ZSteqIcEN9__gnu_cxx11__enable_ifIXsr9__is_charIT_EE7__valueEbE6__typeERKNSt7__cxx1112basic_stringIS2_St11char_traitsIS2_ESaIS2_EEESC_.exit.i.i: ; preds = %28
  %bcmp.i.i.i = tail call i32 @bcmp(ptr %29, ptr %30, i64 %31)
  %33 = icmp eq i32 %bcmp.i.i.i, 0
  br i1 %33, label %_ZSteqIcEN9__gnu_cxx11__enable_ifIXsr9__is_charIT_EE7__valueEbE6__typeERKNSt7__cxx1112basic_stringIS2_St11char_traitsIS2_ESaIS2_EEESC_.exit.thread.i.i, label %_ZNKSt8equal_toIN32pxrInternal_v0_24__pxrReserved__12_GLOBAL__N_14TaskEEclERKS2_S5_.exit

_ZSteqIcEN9__gnu_cxx11__enable_ifIXsr9__is_charIT_EE7__valueEbE6__typeERKNSt7__cxx1112basic_stringIS2_St11char_traitsIS2_ESaIS2_EEESC_.exit.thread.i.i: ; preds = %_ZSteqIcEN9__gnu_cxx11__enable_ifIXsr9__is_charIT_EE7__valueEbE6__typeERKNSt7__cxx1112basic_stringIS2_St11char_traitsIS2_ESaIS2_EEESC_.exit.i.i, %28
  %34 = getelementptr inbounds nuw i8, ptr %0, i64 4
  %35 = load i32, ptr %34, align 4
  %36 = getelementptr inbounds nuw i8, ptr %1, i64 4
  %37 = load i32, ptr %36, align 4
  %38 = icmp eq i32 %35, %37
  br label %_ZNKSt8equal_toIN32pxrInternal_v0_24__pxrReserved__12_GLOBAL__N_14TaskEEclERKS2_S5_.exit

_ZNKSt8equal_toIN32pxrInternal_v0_24__pxrReserved__12_GLOBAL__N_14TaskEEclERKS2_S5_.exit: ; preds = %2, %6, %18, %22, %_ZSteqIcEN9__gnu_cxx11__enable_ifIXsr9__is_charIT_EE7__valueEbE6__typeERKNSt7__cxx1112basic_stringIS2_St11char_traitsIS2_ESaIS2_EEESC_.exit.i.i, %_ZSteqIcEN9__gnu_cxx11__enable_ifIXsr9__is_charIT_EE7__valueEbE6__typeERKNSt7__cxx1112basic_stringIS2_St11char_traitsIS2_ESaIS2_EEESC_.exit.thread.i.i
  %39 = phi i1 [ false, %_ZSteqIcEN9__gnu_cxx11__enable_ifIXsr9__is_charIT_EE7__valueEbE6__typeERKNSt7__cxx1112basic_stringIS2_St11char_traitsIS2_ESaIS2_EEESC_.exit.i.i ], [ false, %18 ], [ false, %6 ], [ false, %2 ], [ %38, %_ZSteqIcEN9__gnu_cxx11__enable_ifIXsr9__is_charIT_EE7__valueEbE6__typeERKNSt7__cxx1112basic_stringIS2_St11char_traitsIS2_ESaIS2_EEESC_.exit.thread.i.i ], [ false, %22 ]
  ret i1 %39
}